target datalayout = "e-m:e-p270:32:32-p271:32:32-p272:64:64-i64:64-i128:128-f80:128-n8:16:32:64-S128"
target triple = "x86_64-pc-linux-gnu"

%struct.varattrib_1b = type { i8, [0 x i8] }
%struct.anon = type { i32, [0 x i8] }
%struct.varattrib_1b_e = type { i8, i8, [0 x i8] }
%struct.FunctionCallInfoBaseData = type { ptr, ptr, ptr, i32, i8, i16, [0 x %struct.NullableDatum] }
%struct.NullableDatum = type { i64, i8 }
%struct.FmgrInfo = type { ptr, i32, i16, i8, i8, i8, ptr, ptr, ptr }
%struct.FuncCallContext = type { i64, i64, ptr, ptr, ptr, ptr }
%struct.OkeysState = type { ptr, ptr, i32, i32, i32 }
%struct.ReturnSetInfo = type { i32, ptr, ptr, i32, i32, i32, ptr, ptr }
%struct.JsonLexContext = type { ptr, i64, i32, ptr, ptr, ptr, i8, i32, i32, i32, i32, ptr, ptr, ptr, i8, ptr, ptr }
%struct.JsonSemAction = type { ptr, ptr, ptr, ptr, ptr, ptr, ptr, ptr, ptr, ptr }

@CurrentMemoryContext = external global ptr, align 8

; Function Attrs: inlinehint nounwind uwtable
define internal i64 @PointerGetDatum(ptr noundef %0) #3 {
  %2 = alloca ptr, align 8
  store ptr %0, ptr %2, align 8
  %3 = load ptr, ptr %2, align 8
  %4 = ptrtoint ptr %3 to i64
  ret i64 %4
}

; Function Attrs: nounwind uwtable
define dso_local zeroext i1 @pg_parse_json_or_errsave(ptr noundef %0, ptr noundef %1, ptr noundef %2) #0 {
  %4 = alloca i1, align 1
  %5 = alloca ptr, align 8
  %6 = alloca ptr, align 8
  %7 = alloca ptr, align 8
  %8 = alloca i32, align 4
  %9 = alloca i32, align 4
  store ptr %0, ptr %5, align 8
  store ptr %1, ptr %6, align 8
  store ptr %2, ptr %7, align 8
  call void @llvm.lifetime.start.p0(i64 4, ptr %8) #10
  %10 = load ptr, ptr %5, align 8
  %11 = load ptr, ptr %6, align 8
  %12 = call i32 @pg_parse_json(ptr noundef %10, ptr noundef %11)
  store i32 %12, ptr %8, align 4
  %13 = load i32, ptr %8, align 4
  %14 = icmp ne i32 %13, 0
  br i1 %14, label %15, label %19

15:                                               ; preds = %3
  %16 = load i32, ptr %8, align 4
  %17 = load ptr, ptr %5, align 8
  %18 = load ptr, ptr %7, align 8
  call void @json_errsave_error(i32 noundef %16, ptr noundef %17, ptr noundef %18)
  store i1 false, ptr %4, align 1
  store i32 1, ptr %9, align 4
  br label %20

19:                                               ; preds = %3
  store i1 true, ptr %4, align 1
  store i32 1, ptr %9, align 4
  br label %20

20:                                               ; preds = %19, %15
  call void @llvm.lifetime.end.p0(i64 4, ptr %8) #10
  %21 = load i1, ptr %4, align 1
  ret i1 %21
}

; Function Attrs: nounwind uwtable
define dso_local ptr @makeJsonLexContext(ptr noundef %0, ptr noundef %1, i1 noundef zeroext %2) #0 {
  %4 = alloca ptr, align 8
  %5 = alloca ptr, align 8
  %6 = alloca i8, align 1
  store ptr %0, ptr %4, align 8
  store ptr %1, ptr %5, align 8
  %7 = zext i1 %2 to i8
  store i8 %7, ptr %6, align 1
  %8 = load ptr, ptr %5, align 8
  %9 = call ptr @pg_detoast_datum_packed(ptr noundef %8)
  store ptr %9, ptr %5, align 8
  %10 = load ptr, ptr %4, align 8
  %11 = load ptr, ptr %5, align 8
  %12 = getelementptr inbounds nuw %struct.varattrib_1b, ptr %11, i32 0, i32 0
  %13 = load i8, ptr %12, align 1
  %14 = zext i8 %13 to i32
  %15 = and i32 %14, 1
  %16 = icmp eq i32 %15, 1
  br i1 %16, label %17, label %21

17:                                               ; preds = %3
  %18 = load ptr, ptr %5, align 8
  %19 = getelementptr inbounds nuw %struct.varattrib_1b, ptr %18, i32 0, i32 1
  %20 = getelementptr inbounds [0 x i8], ptr %19, i64 0, i64 0
  br label %25

21:                                               ; preds = %3
  %22 = load ptr, ptr %5, align 8
  %23 = getelementptr inbounds nuw %struct.anon, ptr %22, i32 0, i32 1
  %24 = getelementptr inbounds [0 x i8], ptr %23, i64 0, i64 0
  br label %25

25:                                               ; preds = %21, %17
  %26 = phi ptr [ %20, %17 ], [ %24, %21 ]
  %27 = load ptr, ptr %5, align 8
  %28 = getelementptr inbounds nuw %struct.varattrib_1b, ptr %27, i32 0, i32 0
  %29 = load i8, ptr %28, align 1
  %30 = zext i8 %29 to i32
  %31 = icmp eq i32 %30, 1
  br i1 %31, label %32, label %60

32:                                               ; preds = %25
  %33 = load ptr, ptr %5, align 8
  %34 = getelementptr inbounds nuw %struct.varattrib_1b_e, ptr %33, i32 0, i32 1
  %35 = load i8, ptr %34, align 1
  %36 = zext i8 %35 to i32
  %37 = icmp eq i32 %36, 1
  br i1 %37, label %38, label %39

38:                                               ; preds = %32
  br label %56

39:                                               ; preds = %32
  %40 = load ptr, ptr %5, align 8
  %41 = getelementptr inbounds nuw %struct.varattrib_1b_e, ptr %40, i32 0, i32 1
  %42 = load i8, ptr %41, align 1
  %43 = zext i8 %42 to i32
  %44 = and i32 %43, -2
  %45 = icmp eq i32 %44, 2
  br i1 %45, label %46, label %47

46:                                               ; preds = %39
  br label %54

47:                                               ; preds = %39
  %48 = load ptr, ptr %5, align 8
  %49 = getelementptr inbounds nuw %struct.varattrib_1b_e, ptr %48, i32 0, i32 1
  %50 = load i8, ptr %49, align 1
  %51 = zext i8 %50 to i32
  %52 = icmp eq i32 %51, 18
  %53 = select i1 %52, i64 16, i64 0
  br label %54

54:                                               ; preds = %47, %46
  %55 = phi i64 [ 8, %46 ], [ %53, %47 ]
  br label %56

56:                                               ; preds = %54, %38
  %57 = phi i64 [ 8, %38 ], [ %55, %54 ]
  %58 = add i64 2, %57
  %59 = sub i64 %58, 2
  br label %86

60:                                               ; preds = %25
  %61 = load ptr, ptr %5, align 8
  %62 = getelementptr inbounds nuw %struct.varattrib_1b, ptr %61, i32 0, i32 0
  %63 = load i8, ptr %62, align 1
  %64 = zext i8 %63 to i32
  %65 = and i32 %64, 1
  %66 = icmp eq i32 %65, 1
  br i1 %66, label %67, label %76

67:                                               ; preds = %60
  %68 = load ptr, ptr %5, align 8
  %69 = getelementptr inbounds nuw %struct.varattrib_1b, ptr %68, i32 0, i32 0
  %70 = load i8, ptr %69, align 1
  %71 = zext i8 %70 to i32
  %72 = ashr i32 %71, 1
  %73 = and i32 %72, 127
  %74 = sext i32 %73 to i64
  %75 = sub i64 %74, 1
  br label %84

76:                                               ; preds = %60
  %77 = load ptr, ptr %5, align 8
  %78 = getelementptr inbounds nuw %struct.anon, ptr %77, i32 0, i32 0
  %79 = load i32, ptr %78, align 4
  %80 = lshr i32 %79, 2
  %81 = and i32 %80, 1073741823
  %82 = sub i32 %81, 4
  %83 = zext i32 %82 to i64
  br label %84

84:                                               ; preds = %76, %67
  %85 = phi i64 [ %75, %67 ], [ %83, %76 ]
  br label %86

86:                                               ; preds = %84, %56
  %87 = phi i64 [ %59, %56 ], [ %85, %84 ]
  %88 = call i32 @GetDatabaseEncoding()
  %89 = load i8, ptr %6, align 1, !range !4, !noundef !5
  %90 = trunc i8 %89 to i1
  %91 = call ptr @makeJsonLexContextCstringLen(ptr noundef %10, ptr noundef %26, i64 noundef %87, i32 noundef %88, i1 noundef zeroext %90)
  ret ptr %91
}

; Function Attrs: inlinehint nounwind uwtable
define internal ptr @MemoryContextSwitchTo(ptr noundef %0) #3 {
  %2 = alloca ptr, align 8
  %3 = alloca ptr, align 8
  store ptr %0, ptr %2, align 8
  call void @llvm.lifetime.start.p0(i64 8, ptr %3) #10
  %4 = load ptr, ptr @CurrentMemoryContext, align 8
  store ptr %4, ptr %3, align 8
  %5 = load ptr, ptr %2, align 8
  store ptr %5, ptr @CurrentMemoryContext, align 8
  %6 = load ptr, ptr %3, align 8
  call void @llvm.lifetime.end.p0(i64 8, ptr %3) #10
  ret ptr %6
}

; Function Attrs: inlinehint nounwind uwtable
define internal ptr @DatumGetPointer(i64 noundef %0) #3 {
  %2 = alloca i64, align 8
  store i64 %0, ptr %2, align 8
  %3 = load i64, ptr %2, align 8
  %4 = inttoptr i64 %3 to ptr
  ret ptr %4
}

; Function Attrs: nounwind uwtable
define dso_local i64 @json_object_keys(ptr noundef %0) #0 {
  %2 = alloca i64, align 8
  %3 = alloca ptr, align 8
  %4 = alloca ptr, align 8
  %5 = alloca ptr, align 8
  %6 = alloca ptr, align 8
  %7 = alloca %struct.JsonLexContext, align 8
  %8 = alloca ptr, align 8
  %9 = alloca ptr, align 8
  %10 = alloca ptr, align 8
  %11 = alloca ptr, align 8
  %12 = alloca i32, align 4
  %13 = alloca ptr, align 8
  store ptr %0, ptr %3, align 8
  call void @llvm.lifetime.start.p0(i64 8, ptr %4) #10
  call void @llvm.lifetime.start.p0(i64 8, ptr %5) #10
  %14 = load ptr, ptr %3, align 8
  %15 = getelementptr inbounds nuw %struct.FunctionCallInfoBaseData, ptr %14, i32 0, i32 0
  %16 = load ptr, ptr %15, align 8
  %17 = getelementptr inbounds nuw %struct.FmgrInfo, ptr %16, i32 0, i32 6
  %18 = load ptr, ptr %17, align 8
  %19 = icmp eq ptr %18, null
  br i1 %19, label %20, label %66

20:                                               ; preds = %1
  call void @llvm.lifetime.start.p0(i64 8, ptr %6) #10
  %21 = load ptr, ptr %3, align 8
  %22 = getelementptr inbounds nuw %struct.FunctionCallInfoBaseData, ptr %21, i32 0, i32 6
  %23 = getelementptr inbounds [0 x %struct.NullableDatum], ptr %22, i64 0, i64 0
  %24 = getelementptr inbounds nuw %struct.NullableDatum, ptr %23, i32 0, i32 0
  %25 = load i64, ptr %24, align 8
  %26 = call ptr @DatumGetPointer(i64 noundef %25)
  %27 = call ptr @pg_detoast_datum_packed(ptr noundef %26)
  store ptr %27, ptr %6, align 8
  call void @llvm.lifetime.start.p0(i64 120, ptr %7) #10
  call void @llvm.lifetime.start.p0(i64 8, ptr %8) #10
  call void @llvm.lifetime.start.p0(i64 8, ptr %9) #10
  %28 = load ptr, ptr %3, align 8
  %29 = call ptr @init_MultiFuncCall(ptr noundef %28)
  store ptr %29, ptr %4, align 8
  %30 = load ptr, ptr %4, align 8
  %31 = getelementptr inbounds nuw %struct.FuncCallContext, ptr %30, i32 0, i32 4
  %32 = load ptr, ptr %31, align 8
  %33 = call ptr @MemoryContextSwitchTo(ptr noundef %32)
  store ptr %33, ptr %9, align 8
  %34 = call ptr @palloc(i64 noundef 32)
  store ptr %34, ptr %5, align 8
  %35 = call ptr @palloc0(i64 noundef 80)
  store ptr %35, ptr %8, align 8
  %36 = load ptr, ptr %6, align 8
  %37 = call ptr @makeJsonLexContext(ptr noundef %7, ptr noundef %36, i1 noundef zeroext true)
  %38 = load ptr, ptr %5, align 8
  %39 = getelementptr inbounds nuw %struct.OkeysState, ptr %38, i32 0, i32 0
  store ptr %37, ptr %39, align 8
  %40 = load ptr, ptr %5, align 8
  %41 = getelementptr inbounds nuw %struct.OkeysState, ptr %40, i32 0, i32 2
  store i32 256, ptr %41, align 8
  %42 = load ptr, ptr %5, align 8
  %43 = getelementptr inbounds nuw %struct.OkeysState, ptr %42, i32 0, i32 3
  store i32 0, ptr %43, align 4
  %44 = load ptr, ptr %5, align 8
  %45 = getelementptr inbounds nuw %struct.OkeysState, ptr %44, i32 0, i32 4
  store i32 0, ptr %45, align 8
  %46 = call ptr @palloc(i64 noundef 2048)
  %47 = load ptr, ptr %5, align 8
  %48 = getelementptr inbounds nuw %struct.OkeysState, ptr %47, i32 0, i32 1
  store ptr %46, ptr %48, align 8
  %49 = load ptr, ptr %5, align 8
  %50 = load ptr, ptr %8, align 8
  %51 = getelementptr inbounds nuw %struct.JsonSemAction, ptr %50, i32 0, i32 0
  store ptr %49, ptr %51, align 8
  %52 = load ptr, ptr %8, align 8
  %53 = getelementptr inbounds nuw %struct.JsonSemAction, ptr %52, i32 0, i32 3
  store ptr @okeys_array_start, ptr %53, align 8
  %54 = load ptr, ptr %8, align 8
  %55 = getelementptr inbounds nuw %struct.JsonSemAction, ptr %54, i32 0, i32 9
  store ptr @okeys_scalar, ptr %55, align 8
  %56 = load ptr, ptr %8, align 8
  %57 = getelementptr inbounds nuw %struct.JsonSemAction, ptr %56, i32 0, i32 5
  store ptr @okeys_object_field_start, ptr %57, align 8
  %58 = load ptr, ptr %8, align 8
  %59 = call zeroext i1 @pg_parse_json_or_errsave(ptr noundef %7, ptr noundef %58, ptr noundef null)
  call void @freeJsonLexContext(ptr noundef %7)
  %60 = load ptr, ptr %8, align 8
  call void @pfree(ptr noundef %60)
  %61 = load ptr, ptr %9, align 8
  %62 = call ptr @MemoryContextSwitchTo(ptr noundef %61)
  %63 = load ptr, ptr %5, align 8
  %64 = load ptr, ptr %4, align 8
  %65 = getelementptr inbounds nuw %struct.FuncCallContext, ptr %64, i32 0, i32 2
  store ptr %63, ptr %65, align 8
  call void @llvm.lifetime.end.p0(i64 8, ptr %9) #10
  call void @llvm.lifetime.end.p0(i64 8, ptr %8) #10
  call void @llvm.lifetime.end.p0(i64 120, ptr %7) #10
  call void @llvm.lifetime.end.p0(i64 8, ptr %6) #10
  br label %66

66:                                               ; preds = %20, %1
  %67 = load ptr, ptr %3, align 8
  %68 = call ptr @per_MultiFuncCall(ptr noundef %67)
  store ptr %68, ptr %4, align 8
  %69 = load ptr, ptr %4, align 8
  %70 = getelementptr inbounds nuw %struct.FuncCallContext, ptr %69, i32 0, i32 2
  %71 = load ptr, ptr %70, align 8
  store ptr %71, ptr %5, align 8
  %72 = load ptr, ptr %5, align 8
  %73 = getelementptr inbounds nuw %struct.OkeysState, ptr %72, i32 0, i32 4
  %74 = load i32, ptr %73, align 8
  %75 = load ptr, ptr %5, align 8
  %76 = getelementptr inbounds nuw %struct.OkeysState, ptr %75, i32 0, i32 3
  %77 = load i32, ptr %76, align 4
  %78 = icmp slt i32 %74, %77
  br i1 %78, label %79, label %108

79:                                               ; preds = %66
  call void @llvm.lifetime.start.p0(i64 8, ptr %10) #10
  %80 = load ptr, ptr %5, align 8
  %81 = getelementptr inbounds nuw %struct.OkeysState, ptr %80, i32 0, i32 1
  %82 = load ptr, ptr %81, align 8
  %83 = load ptr, ptr %5, align 8
  %84 = getelementptr inbounds nuw %struct.OkeysState, ptr %83, i32 0, i32 4
  %85 = load i32, ptr %84, align 8
  %86 = add i32 %85, 1
  store i32 %86, ptr %84, align 8
  %87 = sext i32 %85 to i64
  %88 = getelementptr inbounds ptr, ptr %82, i64 %87
  %89 = load ptr, ptr %88, align 8
  store ptr %89, ptr %10, align 8
  br label %90

90:                                               ; preds = %79
  call void @llvm.lifetime.start.p0(i64 8, ptr %11) #10
  %91 = load ptr, ptr %4, align 8
  %92 = getelementptr inbounds nuw %struct.FuncCallContext, ptr %91, i32 0, i32 0
  %93 = load i64, ptr %92, align 8
  %94 = add i64 %93, 1
  store i64 %94, ptr %92, align 8
  %95 = load ptr, ptr %3, align 8
  %96 = getelementptr inbounds nuw %struct.FunctionCallInfoBaseData, ptr %95, i32 0, i32 2
  %97 = load ptr, ptr %96, align 8
  store ptr %97, ptr %11, align 8
  %98 = load ptr, ptr %11, align 8
  %99 = getelementptr inbounds nuw %struct.ReturnSetInfo, ptr %98, i32 0, i32 5
  store i32 1, ptr %99, align 8
  %100 = load ptr, ptr %10, align 8
  %101 = call ptr @cstring_to_text(ptr noundef %100)
  %102 = call i64 @PointerGetDatum(ptr noundef %101)
  store i64 %102, ptr %2, align 8
  store i32 1, ptr %12, align 4
  call void @llvm.lifetime.end.p0(i64 8, ptr %11) #10
  br label %105

103:                                              ; No predecessors!
  br label %104

104:                                              ; preds = %103
  store i32 0, ptr %12, align 4
  br label %105

105:                                              ; preds = %104, %90
  call void @llvm.lifetime.end.p0(i64 8, ptr %10) #10
  %106 = load i32, ptr %12, align 4
  switch i32 %106, label %127 [
    i32 0, label %107
  ]

107:                                              ; preds = %105
  br label %108

108:                                              ; preds = %107, %66
  br label %109

109:                                              ; preds = %108
  call void @llvm.lifetime.start.p0(i64 8, ptr %13) #10
  %110 = load ptr, ptr %3, align 8
  %111 = load ptr, ptr %4, align 8
  call void @end_MultiFuncCall(ptr noundef %110, ptr noundef %111)
  %112 = load ptr, ptr %3, align 8
  %113 = getelementptr inbounds nuw %struct.FunctionCallInfoBaseData, ptr %112, i32 0, i32 2
  %114 = load ptr, ptr %113, align 8
  store ptr %114, ptr %13, align 8
  %115 = load ptr, ptr %13, align 8
  %116 = getelementptr inbounds nuw %struct.ReturnSetInfo, ptr %115, i32 0, i32 5
  store i32 2, ptr %116, align 8
  br label %117

117:                                              ; preds = %109
  %118 = load ptr, ptr %3, align 8
  %119 = getelementptr inbounds nuw %struct.FunctionCallInfoBaseData, ptr %118, i32 0, i32 4
  store i8 1, ptr %119, align 4
  store i64 0, ptr %2, align 8
  store i32 1, ptr %12, align 4
  br label %122

120:                                              ; No predecessors!
  br label %121

121:                                              ; preds = %120
  store i32 0, ptr %12, align 4
  br label %122

122:                                              ; preds = %121, %117
  call void @llvm.lifetime.end.p0(i64 8, ptr %13) #10
  %123 = load i32, ptr %12, align 4
  switch i32 %123, label %127 [
    i32 0, label %124
  ]

124:                                              ; preds = %122
  br label %125

125:                                              ; preds = %124
  br label %126

126:                                              ; preds = %125
  store i32 0, ptr %12, align 4
  br label %127

127:                                              ; preds = %126, %122, %105
  call void @llvm.lifetime.end.p0(i64 8, ptr %5) #10
  call void @llvm.lifetime.end.p0(i64 8, ptr %4) #10
  %128 = load i32, ptr %12, align 4
  switch i32 %128, label %131 [
    i32 0, label %129
    i32 1, label %129
  ]

129:                                              ; preds = %127, %127
  %130 = load i64, ptr %2, align 8
  ret i64 %130

131:                                              ; preds = %127
  unreachable
}