; Function Attrs: nounwind uwtable
define dso_local i64 @json_object_keys(ptr noundef %0) local_unnamed_addr #0 {
  %2 = alloca %struct.JsonLexContext, align 8
  %3 = load ptr, ptr %0, align 8
  %4 = getelementptr inbounds nuw i8, ptr %3, i64 24
  %5 = load ptr, ptr %4, align 8
  %6 = icmp eq ptr %5, null
  br i1 %6, label %7, label %58

7:                                                ; preds = %1
  %8 = getelementptr inbounds nuw i8, ptr %0, i64 32
  %9 = load i64, ptr %8, align 8
  %10 = inttoptr i64 %9 to ptr
  %11 = tail call ptr @pg_detoast_datum_packed(ptr noundef %10) #15
  call void @llvm.lifetime.start.p0(i64 120, ptr nonnull %2) #15
  %12 = tail call ptr @init_MultiFuncCall(ptr noundef nonnull %0) #15
  %13 = getelementptr inbounds nuw i8, ptr %12, i64 32
  %14 = load ptr, ptr %13, align 8
  %15 = load ptr, ptr @CurrentMemoryContext, align 8
  store ptr %14, ptr @CurrentMemoryContext, align 8
  %16 = tail call ptr @palloc(i64 noundef 32) #15
  %17 = tail call ptr @palloc0(i64 noundef 80) #15
  %18 = tail call ptr @pg_detoast_datum_packed(ptr noundef %11) #15
  %19 = load i8, ptr %18, align 1
  %20 = zext i8 %19 to i32
  %21 = and i32 %20, 1
  %.not.i = icmp eq i32 %21, 0
  %22 = getelementptr inbounds nuw i8, ptr %18, i64 1
  %23 = icmp eq i8 %19, 1
  br i1 %23, label %24, label %32

24:                                               ; preds = %7
  %25 = load i8, ptr %22, align 1
  %26 = icmp eq i8 %25, 1
  %27 = and i8 %25, -2
  %28 = icmp eq i8 %27, 2
  %or.cond.i = or i1 %26, %28
  %29 = icmp eq i8 %25, 18
  %30 = select i1 %29, i64 16, i64 0
  %31 = select i1 %or.cond.i, i64 8, i64 %30
  br label %makeJsonLexContext.exit

32:                                               ; preds = %7
  br i1 %.not.i, label %37, label %33

33:                                               ; preds = %32
  %34 = lshr i32 %20, 1
  %35 = zext nneg i32 %34 to i64
  %36 = add nsw i64 %35, -1
  br label %makeJsonLexContext.exit

37:                                               ; preds = %32
  %38 = load i32, ptr %18, align 4
  %39 = lshr i32 %38, 2
  %40 = add nsw i32 %39, -4
  %41 = zext i32 %40 to i64
  br label %makeJsonLexContext.exit

makeJsonLexContext.exit:                          ; preds = %24, %33, %37
  %42 = phi i64 [ %31, %24 ], [ %36, %33 ], [ %41, %37 ]
  %43 = getelementptr inbounds nuw i8, ptr %18, i64 4
  %44 = select i1 %.not.i, ptr %43, ptr %22
  %45 = tail call i32 @GetDatabaseEncoding() #15
  %46 = call ptr @makeJsonLexContextCstringLen(ptr noundef nonnull %2, ptr noundef nonnull %44, i64 noundef %42, i32 noundef %45, i1 noundef zeroext true) #15
  store ptr %46, ptr %16, align 8
  %47 = getelementptr inbounds nuw i8, ptr %16, i64 16
  store i32 256, ptr %47, align 8
  %48 = getelementptr inbounds nuw i8, ptr %16, i64 20
  store i32 0, ptr %48, align 4
  %49 = getelementptr inbounds nuw i8, ptr %16, i64 24
  store i32 0, ptr %49, align 8
  %50 = call ptr @palloc(i64 noundef 2048) #15
  %51 = getelementptr inbounds nuw i8, ptr %16, i64 8
  store ptr %50, ptr %51, align 8
  store ptr %16, ptr %17, align 8
  %52 = getelementptr inbounds nuw i8, ptr %17, i64 24
  store ptr @okeys_array_start, ptr %52, align 8
  %53 = getelementptr inbounds nuw i8, ptr %17, i64 72
  store ptr @okeys_scalar, ptr %53, align 8
  %54 = getelementptr inbounds nuw i8, ptr %17, i64 40
  store ptr @okeys_object_field_start, ptr %54, align 8
  %55 = call i32 @pg_parse_json(ptr noundef nonnull %2, ptr noundef nonnull %17) #15
  %.not.i39 = icmp eq i32 %55, 0
  br i1 %.not.i39, label %pg_parse_json_or_errsave.exit, label %56

56:                                               ; preds = %makeJsonLexContext.exit
  call void @json_errsave_error(i32 noundef %55, ptr noundef nonnull %2, ptr noundef null)
  br label %pg_parse_json_or_errsave.exit

pg_parse_json_or_errsave.exit:                    ; preds = %makeJsonLexContext.exit, %56
  call void @freeJsonLexContext(ptr noundef nonnull %2) #15
  call void @pfree(ptr noundef nonnull %17) #15
  store ptr %15, ptr @CurrentMemoryContext, align 8
  %57 = getelementptr inbounds nuw i8, ptr %12, i64 16
  store ptr %16, ptr %57, align 8
  call void @llvm.lifetime.end.p0(i64 120, ptr nonnull %2) #15
  br label %58

58:                                               ; preds = %pg_parse_json_or_errsave.exit, %1
  %59 = call ptr @per_MultiFuncCall(ptr noundef nonnull %0) #15
  %60 = getelementptr inbounds nuw i8, ptr %59, i64 16
  %61 = load ptr, ptr %60, align 8
  %62 = getelementptr inbounds nuw i8, ptr %61, i64 24
  %63 = load i32, ptr %62, align 8
  %64 = getelementptr inbounds nuw i8, ptr %61, i64 20
  %65 = load i32, ptr %64, align 4
  %66 = icmp slt i32 %63, %65
  br i1 %66, label %67, label %81

67:                                               ; preds = %58
  %68 = getelementptr inbounds nuw i8, ptr %61, i64 8
  %69 = load ptr, ptr %68, align 8
  %70 = add nsw i32 %63, 1
  store i32 %70, ptr %62, align 8
  %71 = sext i32 %63 to i64
  %72 = getelementptr inbounds ptr, ptr %69, i64 %71
  %73 = load ptr, ptr %72, align 8
  %74 = load i64, ptr %59, align 8
  %75 = add i64 %74, 1
  store i64 %75, ptr %59, align 8
  %76 = getelementptr inbounds nuw i8, ptr %0, i64 16
  %77 = load ptr, ptr %76, align 8
  %78 = getelementptr inbounds nuw i8, ptr %77, i64 32
  store i32 1, ptr %78, align 8
  %79 = call ptr @cstring_to_text(ptr noundef %73) #15
  %80 = ptrtoint ptr %79 to i64
  br label %86

81:                                               ; preds = %58
  call void @end_MultiFuncCall(ptr noundef nonnull %0, ptr noundef nonnull %59) #15
  %82 = getelementptr inbounds nuw i8, ptr %0, i64 16
  %83 = load ptr, ptr %82, align 8
  %84 = getelementptr inbounds nuw i8, ptr %83, i64 32
  store i32 2, ptr %84, align 8
  %85 = getelementptr inbounds nuw i8, ptr %0, i64 28
  store i8 1, ptr %85, align 4
  br label %86

86:                                               ; preds = %67, %81
  %.0 = phi i64 [ 0, %81 ], [ %80, %67 ]
  ret i64 %.0
}